target datalayout = "e-m:e-p270:32:32-p271:32:32-p272:64:64-i64:64-i128:128-f80:128-n8:16:32:64-S128"
target triple = "x86_64-pc-linux-gnu"

%struct.VLCElem = type { %union.anon.1 }
%union.anon.1 = type { %struct.anon }
%struct.anon = type { i16, i16 }
%struct.VLCInitState = type { ptr, i32 }

@superblock_run_length_vlc = internal global [88 x %struct.VLCElem] zeroinitializer, align 16
@fragment_run_length_vlc = internal global [56 x %struct.VLCElem] zeroinitializer, align 16
@block_pattern_vlc = internal global [2 x ptr] zeroinitializer, align 16
@motion_vector_vlc = internal global [112 x %struct.VLCElem] zeroinitializer, align 16
@vp4_mv_vlc_table = internal global [2 x [7 x ptr]] zeroinitializer, align 16
@__const.init_tables_once.state = private unnamed_addr constant { ptr, i32, [4 x i8] } { ptr @mode_code_vlc, i32 2132, [4 x i8] zeroinitializer }, align 8
@superblock_run_length_vlc_lens = internal constant [34 x i8] c"\01\03\03\04\04\06\06\06\06\08\08\08\08\08\08\08\08\0A\0A\0A\0A\0A\0A\0A\0A\0A\0A\0A\0A\0A\0A\0A\0A\06", align 16
@fragment_run_length_vlc_len = internal constant [30 x i8] c"\02\02\03\03\04\04\06\06\06\06\07\07\07\07\09\09\09\09\09\09\09\09\09\09\09\09\09\09\09\09", align 16
@mode_code_vlc_len = internal constant [8 x i8] c"\01\02\03\04\05\06\07\07", align 1

; Function Attrs: inlinehint nounwind uwtable
define internal ptr @ff_vlc_init_tables(ptr noundef %0, i32 noundef %1, i32 noundef %2, ptr noundef %3, i32 noundef %4, i32 noundef %5, ptr noundef %6, i32 noundef %7, i32 noundef %8, i32 noundef %9) #5 {
  %11 = alloca ptr, align 8
  %12 = alloca i32, align 4
  %13 = alloca i32, align 4
  %14 = alloca ptr, align 8
  %15 = alloca i32, align 4
  %16 = alloca i32, align 4
  %17 = alloca ptr, align 8
  %18 = alloca i32, align 4
  %19 = alloca i32, align 4
  %20 = alloca i32, align 4
  store ptr %0, ptr %11, align 8, !tbaa !297
  store i32 %1, ptr %12, align 4, !tbaa !31
  store i32 %2, ptr %13, align 4, !tbaa !31
  store ptr %3, ptr %14, align 8, !tbaa !243
  store i32 %4, ptr %15, align 4, !tbaa !31
  store i32 %5, ptr %16, align 4, !tbaa !31
  store ptr %6, ptr %17, align 8, !tbaa !243
  store i32 %7, ptr %18, align 4, !tbaa !31
  store i32 %8, ptr %19, align 4, !tbaa !31
  store i32 %9, ptr %20, align 4, !tbaa !31
  %21 = load ptr, ptr %11, align 8, !tbaa !297
  %22 = load i32, ptr %12, align 4, !tbaa !31
  %23 = load i32, ptr %13, align 4, !tbaa !31
  %24 = load ptr, ptr %14, align 8, !tbaa !243
  %25 = load i32, ptr %15, align 4, !tbaa !31
  %26 = load i32, ptr %16, align 4, !tbaa !31
  %27 = load ptr, ptr %17, align 8, !tbaa !243
  %28 = load i32, ptr %18, align 4, !tbaa !31
  %29 = load i32, ptr %19, align 4, !tbaa !31
  %30 = load i32, ptr %20, align 4, !tbaa !31
  %31 = call ptr @ff_vlc_init_tables_sparse(ptr noundef %21, i32 noundef %22, i32 noundef %23, ptr noundef %24, i32 noundef %25, i32 noundef %26, ptr noundef %27, i32 noundef %28, i32 noundef %29, ptr noundef null, i32 noundef 0, i32 noundef 0, i32 noundef %30)
  ret ptr %31
}

; Function Attrs: cold nounwind optsize uwtable
define internal void @init_tables_once() #1 {
  %1 = alloca %struct.VLCInitState, align 8
  %2 = alloca i32, align 4
  %3 = alloca i32, align 4
  %4 = alloca i32, align 4
  %5 = alloca i32, align 4
  call void @llvm.lifetime.start.p0(i64 16, ptr %1) #9
  call void @llvm.memcpy.p0.p0.i64(ptr align 8 %1, ptr align 8 @__const.init_tables_once.state, i64 16, i1 false)
  call void @ff_vlc_init_table_from_lengths(ptr noundef @superblock_run_length_vlc, i32 noundef 88, i32 noundef 6, i32 noundef 34, ptr noundef @superblock_run_length_vlc_lens, i32 noundef 1, ptr noundef null, i32 noundef 0, i32 noundef 0, i32 noundef 1, i32 noundef 0)
  call void @ff_vlc_init_table_from_lengths(ptr noundef @fragment_run_length_vlc, i32 noundef 56, i32 noundef 5, i32 noundef 30, ptr noundef @fragment_run_length_vlc_len, i32 noundef 1, ptr noundef null, i32 noundef 0, i32 noundef 0, i32 noundef 0, i32 noundef 0)
  call void @ff_vlc_init_table_from_lengths(ptr noundef @motion_vector_vlc, i32 noundef 112, i32 noundef 6, i32 noundef 63, ptr noundef getelementptr inbounds ([2 x i8], ptr @motion_vector_vlc_table, i64 0, i64 1), i32 noundef 2, ptr noundef @motion_vector_vlc_table, i32 noundef 2, i32 noundef 1, i32 noundef -31, i32 noundef 0)
  %6 = call ptr @ff_vlc_init_tables_from_lengths(ptr noundef %1, i32 noundef 4, i32 noundef 8, ptr noundef @mode_code_vlc_len, i32 noundef 1, ptr noundef null, i32 noundef 0, i32 noundef 0, i32 noundef 0, i32 noundef 0)
  call void @llvm.lifetime.start.p0(i64 4, ptr %2) #9
  store i32 0, ptr %2, align 4, !tbaa !31
  br label %7

7:                                                ; preds = %44, %0
  %8 = load i32, ptr %2, align 4, !tbaa !31
  %9 = icmp slt i32 %8, 2
  br i1 %9, label %11, label %10

10:                                               ; preds = %7
  store i32 2, ptr %3, align 4
  call void @llvm.lifetime.end.p0(i64 4, ptr %2) #9
  br label %47

11:                                               ; preds = %7
  call void @llvm.lifetime.start.p0(i64 4, ptr %4) #9
  store i32 0, ptr %4, align 4, !tbaa !31
  br label %12

12:                                               ; preds = %40, %11
  %13 = load i32, ptr %4, align 4, !tbaa !31
  %14 = icmp slt i32 %13, 7
  br i1 %14, label %16, label %15

15:                                               ; preds = %12
  store i32 5, ptr %3, align 4
  call void @llvm.lifetime.end.p0(i64 4, ptr %4) #9
  br label %43

16:                                               ; preds = %12
  %17 = load i32, ptr %2, align 4, !tbaa !31
  %18 = sext i32 %17 to i64
  %19 = getelementptr inbounds [2 x [7 x [63 x [2 x i8]]]], ptr @vp4_mv_vlc, i64 0, i64 %18
  %20 = load i32, ptr %4, align 4, !tbaa !31
  %21 = sext i32 %20 to i64
  %22 = getelementptr inbounds [7 x [63 x [2 x i8]]], ptr %19, i64 0, i64 %21
  %23 = getelementptr inbounds [63 x [2 x i8]], ptr %22, i64 0, i64 0
  %24 = getelementptr inbounds [2 x i8], ptr %23, i64 0, i64 1
  %25 = load i32, ptr %2, align 4, !tbaa !31
  %26 = sext i32 %25 to i64
  %27 = getelementptr inbounds [2 x [7 x [63 x [2 x i8]]]], ptr @vp4_mv_vlc, i64 0, i64 %26
  %28 = load i32, ptr %4, align 4, !tbaa !31
  %29 = sext i32 %28 to i64
  %30 = getelementptr inbounds [7 x [63 x [2 x i8]]], ptr %27, i64 0, i64 %29
  %31 = getelementptr inbounds [63 x [2 x i8]], ptr %30, i64 0, i64 0
  %32 = getelementptr inbounds [2 x i8], ptr %31, i64 0, i64 0
  %33 = call ptr @ff_vlc_init_tables_from_lengths(ptr noundef %1, i32 noundef 6, i32 noundef 63, ptr noundef %24, i32 noundef 2, ptr noundef %32, i32 noundef 2, i32 noundef 1, i32 noundef -31, i32 noundef 0)
  %34 = load i32, ptr %2, align 4, !tbaa !31
  %35 = sext i32 %34 to i64
  %36 = getelementptr inbounds [2 x [7 x ptr]], ptr @vp4_mv_vlc_table, i64 0, i64 %35
  %37 = load i32, ptr %4, align 4, !tbaa !31
  %38 = sext i32 %37 to i64
  %39 = getelementptr inbounds [7 x ptr], ptr %36, i64 0, i64 %38
  store ptr %33, ptr %39, align 8, !tbaa !140
  br label %40

40:                                               ; preds = %16
  %41 = load i32, ptr %4, align 4, !tbaa !31
  %42 = add nsw i32 %41, 1
  store i32 %42, ptr %4, align 4, !tbaa !31
  br label %12, !llvm.loop !294

43:                                               ; preds = %15
  br label %44

44:                                               ; preds = %43
  %45 = load i32, ptr %2, align 4, !tbaa !31
  %46 = add nsw i32 %45, 1
  store i32 %46, ptr %2, align 4, !tbaa !31
  br label %7, !llvm.loop !295

47:                                               ; preds = %10
  call void @llvm.lifetime.start.p0(i64 4, ptr %5) #9
  store i32 0, ptr %5, align 4, !tbaa !31
  br label %48

48:                                               ; preds = %67, %47
  %49 = load i32, ptr %5, align 4, !tbaa !31
  %50 = icmp slt i32 %49, 2
  br i1 %50, label %52, label %51

51:                                               ; preds = %48
  store i32 8, ptr %3, align 4
  call void @llvm.lifetime.end.p0(i64 4, ptr %5) #9
  br label %70

52:                                               ; preds = %48
  %53 = load i32, ptr %5, align 4, !tbaa !31
  %54 = sext i32 %53 to i64
  %55 = getelementptr inbounds [2 x [14 x [2 x i8]]], ptr @vp4_block_pattern_vlc, i64 0, i64 %54
  %56 = getelementptr inbounds [14 x [2 x i8]], ptr %55, i64 0, i64 0
  %57 = getelementptr inbounds [2 x i8], ptr %56, i64 0, i64 1
  %58 = load i32, ptr %5, align 4, !tbaa !31
  %59 = sext i32 %58 to i64
  %60 = getelementptr inbounds [2 x [14 x [2 x i8]]], ptr @vp4_block_pattern_vlc, i64 0, i64 %59
  %61 = getelementptr inbounds [14 x [2 x i8]], ptr %60, i64 0, i64 0
  %62 = getelementptr inbounds [2 x i8], ptr %61, i64 0, i64 0
  %63 = call ptr @ff_vlc_init_tables(ptr noundef %1, i32 noundef 5, i32 noundef 14, ptr noundef %57, i32 noundef 2, i32 noundef 1, ptr noundef %62, i32 noundef 2, i32 noundef 1, i32 noundef 0)
  %64 = load i32, ptr %5, align 4, !tbaa !31
  %65 = sext i32 %64 to i64
  %66 = getelementptr inbounds [2 x ptr], ptr @block_pattern_vlc, i64 0, i64 %65
  store ptr %63, ptr %66, align 8, !tbaa !140
  br label %67

67:                                               ; preds = %52
  %68 = load i32, ptr %5, align 4, !tbaa !31
  %69 = add nsw i32 %68, 1
  store i32 %69, ptr %5, align 4, !tbaa !31
  br label %48, !llvm.loop !296

70:                                               ; preds = %51
  call void @llvm.lifetime.end.p0(i64 16, ptr %1) #9
  ret void
}