; Function Attrs: cold nounwind optsize uwtable
define internal void @init_tables_once() #1 {
  %1 = alloca %struct.VLCInitState, align 8
  call void @llvm.lifetime.start.p0(i64 16, ptr nonnull %1) #9
  call void @llvm.memcpy.p0.p0.i64(ptr noundef nonnull align 8 dereferenceable(16) %1, ptr noundef nonnull align 8 dereferenceable(16) @__const.init_tables_once.state, i64 16, i1 false)
  tail call void @ff_vlc_init_table_from_lengths(ptr noundef nonnull @superblock_run_length_vlc, i32 noundef 88, i32 noundef 6, i32 noundef 34, ptr noundef nonnull @superblock_run_length_vlc_lens, i32 noundef 1, ptr noundef null, i32 noundef 0, i32 noundef 0, i32 noundef 1, i32 noundef 0) #9
  tail call void @ff_vlc_init_table_from_lengths(ptr noundef nonnull @fragment_run_length_vlc, i32 noundef 56, i32 noundef 5, i32 noundef 30, ptr noundef nonnull @fragment_run_length_vlc_len, i32 noundef 1, ptr noundef null, i32 noundef 0, i32 noundef 0, i32 noundef 0, i32 noundef 0) #9
  tail call void @ff_vlc_init_table_from_lengths(ptr noundef nonnull @motion_vector_vlc, i32 noundef 112, i32 noundef 6, i32 noundef 63, ptr noundef nonnull getelementptr inbounds nuw (i8, ptr @motion_vector_vlc_table, i64 1), i32 noundef 2, ptr noundef nonnull @motion_vector_vlc_table, i32 noundef 2, i32 noundef 1, i32 noundef -31, i32 noundef 0) #9
  %2 = call ptr @ff_vlc_init_tables_from_lengths(ptr noundef nonnull %1, i32 noundef 4, i32 noundef 8, ptr noundef nonnull @mode_code_vlc_len, i32 noundef 1, ptr noundef null, i32 noundef 0, i32 noundef 0, i32 noundef 0, i32 noundef 0) #9
  br label %.preheader17

.preheader17:                                     ; preds = %0, %4
  %3 = phi i1 [ true, %0 ], [ false, %4 ]
  %indvars.iv22 = phi i64 [ 0, %0 ], [ 1, %4 ]
  br label %5

4:                                                ; preds = %5
  br i1 %3, label %.preheader17, label %.preheader, !llvm.loop !265

5:                                                ; preds = %.preheader17, %5
  %indvars.iv = phi i64 [ 0, %.preheader17 ], [ %indvars.iv.next, %5 ]
  %6 = getelementptr inbounds nuw [2 x [7 x [63 x [2 x i8]]]], ptr @vp4_mv_vlc, i64 0, i64 %indvars.iv22, i64 %indvars.iv
  %7 = getelementptr inbounds nuw i8, ptr %6, i64 1
  %8 = call ptr @ff_vlc_init_tables_from_lengths(ptr noundef nonnull %1, i32 noundef 6, i32 noundef 63, ptr noundef nonnull %7, i32 noundef 2, ptr noundef nonnull %6, i32 noundef 2, i32 noundef 1, i32 noundef -31, i32 noundef 0) #9
  %9 = getelementptr inbounds nuw [2 x [7 x ptr]], ptr @vp4_mv_vlc_table, i64 0, i64 %indvars.iv22, i64 %indvars.iv
  store ptr %8, ptr %9, align 8, !tbaa !117
  %indvars.iv.next = add nuw nsw i64 %indvars.iv, 1
  %exitcond.not = icmp eq i64 %indvars.iv.next, 7
  br i1 %exitcond.not, label %4, label %5, !llvm.loop !266

.preheader:                                       ; preds = %4
  %10 = call ptr @ff_vlc_init_tables_sparse(ptr noundef nonnull %1, i32 noundef 5, i32 noundef 14, ptr noundef nonnull getelementptr inbounds nuw (i8, ptr @vp4_block_pattern_vlc, i64 1), i32 noundef 2, i32 noundef 1, ptr noundef nonnull @vp4_block_pattern_vlc, i32 noundef 2, i32 noundef 1, ptr noundef null, i32 noundef 0, i32 noundef 0, i32 noundef 0) #9
  store ptr %10, ptr @block_pattern_vlc, align 16, !tbaa !117
  %11 = call ptr @ff_vlc_init_tables_sparse(ptr noundef nonnull %1, i32 noundef 5, i32 noundef 14, ptr noundef nonnull getelementptr inbounds nuw (i8, ptr @vp4_block_pattern_vlc, i64 29), i32 noundef 2, i32 noundef 1, ptr noundef nonnull getelementptr inbounds nuw (i8, ptr @vp4_block_pattern_vlc, i64 28), i32 noundef 2, i32 noundef 1, ptr noundef null, i32 noundef 0, i32 noundef 0, i32 noundef 0) #9
  store ptr %11, ptr getelementptr inbounds nuw (i8, ptr @block_pattern_vlc, i64 8), align 8, !tbaa !117
  call void @llvm.lifetime.end.p0(i64 16, ptr nonnull %1) #9
  ret void
}